target datalayout = "e-m:e-p270:32:32-p271:32:32-p272:64:64-i64:64-i128:128-f80:128-n8:16:32:64-S128"
target triple = "x86_64-pc-linux-gnu"

; Function Attrs: nounwind uwtable
define void @QDLDL_Ltsolve(i64 noundef %0, ptr noundef %1, ptr noundef %2, ptr noundef %3, ptr noundef %4) #0 {
  %6 = alloca i64, align 8
  %7 = alloca ptr, align 8
  %8 = alloca ptr, align 8
  %9 = alloca ptr, align 8
  %10 = alloca ptr, align 8
  %11 = alloca i64, align 8
  %12 = alloca i64, align 8
  %13 = alloca double, align 8
  store i64 %0, ptr %6, align 8, !tbaa !3
  store ptr %1, ptr %7, align 8, !tbaa !7
  store ptr %2, ptr %8, align 8, !tbaa !7
  store ptr %3, ptr %9, align 8, !tbaa !16
  store ptr %4, ptr %10, align 8, !tbaa !16
  call void @llvm.lifetime.start.p0(i64 8, ptr %11) #3
  call void @llvm.lifetime.start.p0(i64 8, ptr %12) #3
  %14 = load i64, ptr %6, align 8, !tbaa !3
  %15 = sub nsw i64 %14, 1
  store i64 %15, ptr %11, align 8, !tbaa !3
  br label %16

16:                                               ; preds = %59, %5
  %17 = load i64, ptr %11, align 8, !tbaa !3
  %18 = icmp sge i64 %17, 0
  br i1 %18, label %19, label %62

19:                                               ; preds = %16
  call void @llvm.lifetime.start.p0(i64 8, ptr %13) #3
  %20 = load ptr, ptr %10, align 8, !tbaa !16
  %21 = load i64, ptr %11, align 8, !tbaa !3
  %22 = getelementptr inbounds double, ptr %20, i64 %21
  %23 = load double, ptr %22, align 8, !tbaa !21
  store double %23, ptr %13, align 8, !tbaa !21
  %24 = load ptr, ptr %7, align 8, !tbaa !7
  %25 = load i64, ptr %11, align 8, !tbaa !3
  %26 = getelementptr inbounds i64, ptr %24, i64 %25
  %27 = load i64, ptr %26, align 8, !tbaa !3
  store i64 %27, ptr %12, align 8, !tbaa !3
  br label %28

28:                                               ; preds = %51, %19
  %29 = load i64, ptr %12, align 8, !tbaa !3
  %30 = load ptr, ptr %7, align 8, !tbaa !7
  %31 = load i64, ptr %11, align 8, !tbaa !3
  %32 = add nsw i64 %31, 1
  %33 = getelementptr inbounds i64, ptr %30, i64 %32
  %34 = load i64, ptr %33, align 8, !tbaa !3
  %35 = icmp slt i64 %29, %34
  br i1 %35, label %36, label %54

36:                                               ; preds = %28
  %37 = load ptr, ptr %9, align 8, !tbaa !16
  %38 = load i64, ptr %12, align 8, !tbaa !3
  %39 = getelementptr inbounds double, ptr %37, i64 %38
  %40 = load double, ptr %39, align 8, !tbaa !21
  %41 = load ptr, ptr %10, align 8, !tbaa !16
  %42 = load ptr, ptr %8, align 8, !tbaa !7
  %43 = load i64, ptr %12, align 8, !tbaa !3
  %44 = getelementptr inbounds i64, ptr %42, i64 %43
  %45 = load i64, ptr %44, align 8, !tbaa !3
  %46 = getelementptr inbounds double, ptr %41, i64 %45
  %47 = load double, ptr %46, align 8, !tbaa !21
  %48 = load double, ptr %13, align 8, !tbaa !21
  %49 = fneg double %40
  %50 = call double @llvm.fmuladd.f64(double %49, double %47, double %48)
  store double %50, ptr %13, align 8, !tbaa !21
  br label %51

51:                                               ; preds = %36
  %52 = load i64, ptr %12, align 8, !tbaa !3
  %53 = add nsw i64 %52, 1
  store i64 %53, ptr %12, align 8, !tbaa !3
  br label %28, !llvm.loop !32

54:                                               ; preds = %28
  %55 = load double, ptr %13, align 8, !tbaa !21
  %56 = load ptr, ptr %10, align 8, !tbaa !16
  %57 = load i64, ptr %11, align 8, !tbaa !3
  %58 = getelementptr inbounds double, ptr %56, i64 %57
  store double %55, ptr %58, align 8, !tbaa !21
  call void @llvm.lifetime.end.p0(i64 8, ptr %13) #3
  br label %59

59:                                               ; preds = %54
  %60 = load i64, ptr %11, align 8, !tbaa !3
  %61 = add nsw i64 %60, -1
  store i64 %61, ptr %11, align 8, !tbaa !3
  br label %16, !llvm.loop !33

62:                                               ; preds = %16
  call void @llvm.lifetime.end.p0(i64 8, ptr %12) #3
  call void @llvm.lifetime.end.p0(i64 8, ptr %11) #3
  ret void
}

; Function Attrs: nounwind uwtable
define void @QDLDL_Lsolve(i64 noundef %0, ptr noundef %1, ptr noundef %2, ptr noundef %3, ptr noundef %4) #0 {
  %6 = alloca i64, align 8
  %7 = alloca ptr, align 8
  %8 = alloca ptr, align 8
  %9 = alloca ptr, align 8
  %10 = alloca ptr, align 8
  %11 = alloca i64, align 8
  %12 = alloca i64, align 8
  %13 = alloca double, align 8
  store i64 %0, ptr %6, align 8, !tbaa !3
  store ptr %1, ptr %7, align 8, !tbaa !7
  store ptr %2, ptr %8, align 8, !tbaa !7
  store ptr %3, ptr %9, align 8, !tbaa !16
  store ptr %4, ptr %10, align 8, !tbaa !16
  call void @llvm.lifetime.start.p0(i64 8, ptr %11) #3
  call void @llvm.lifetime.start.p0(i64 8, ptr %12) #3
  store i64 0, ptr %11, align 8, !tbaa !3
  br label %14

14:                                               ; preds = %54, %5
  %15 = load i64, ptr %11, align 8, !tbaa !3
  %16 = load i64, ptr %6, align 8, !tbaa !3
  %17 = icmp slt i64 %15, %16
  br i1 %17, label %18, label %57

18:                                               ; preds = %14
  call void @llvm.lifetime.start.p0(i64 8, ptr %13) #3
  %19 = load ptr, ptr %10, align 8, !tbaa !16
  %20 = load i64, ptr %11, align 8, !tbaa !3
  %21 = getelementptr inbounds double, ptr %19, i64 %20
  %22 = load double, ptr %21, align 8, !tbaa !21
  store double %22, ptr %13, align 8, !tbaa !21
  %23 = load ptr, ptr %7, align 8, !tbaa !7
  %24 = load i64, ptr %11, align 8, !tbaa !3
  %25 = getelementptr inbounds i64, ptr %23, i64 %24
  %26 = load i64, ptr %25, align 8, !tbaa !3
  store i64 %26, ptr %12, align 8, !tbaa !3
  br label %27

27:                                               ; preds = %50, %18
  %28 = load i64, ptr %12, align 8, !tbaa !3
  %29 = load ptr, ptr %7, align 8, !tbaa !7
  %30 = load i64, ptr %11, align 8, !tbaa !3
  %31 = add nsw i64 %30, 1
  %32 = getelementptr inbounds i64, ptr %29, i64 %31
  %33 = load i64, ptr %32, align 8, !tbaa !3
  %34 = icmp slt i64 %28, %33
  br i1 %34, label %35, label %53

35:                                               ; preds = %27
  %36 = load ptr, ptr %9, align 8, !tbaa !16
  %37 = load i64, ptr %12, align 8, !tbaa !3
  %38 = getelementptr inbounds double, ptr %36, i64 %37
  %39 = load double, ptr %38, align 8, !tbaa !21
  %40 = load double, ptr %13, align 8, !tbaa !21
  %41 = load ptr, ptr %10, align 8, !tbaa !16
  %42 = load ptr, ptr %8, align 8, !tbaa !7
  %43 = load i64, ptr %12, align 8, !tbaa !3
  %44 = getelementptr inbounds i64, ptr %42, i64 %43
  %45 = load i64, ptr %44, align 8, !tbaa !3
  %46 = getelementptr inbounds double, ptr %41, i64 %45
  %47 = load double, ptr %46, align 8, !tbaa !21
  %48 = fneg double %39
  %49 = call double @llvm.fmuladd.f64(double %48, double %40, double %47)
  store double %49, ptr %46, align 8, !tbaa !21
  br label %50

50:                                               ; preds = %35
  %51 = load i64, ptr %12, align 8, !tbaa !3
  %52 = add nsw i64 %51, 1
  store i64 %52, ptr %12, align 8, !tbaa !3
  br label %27, !llvm.loop !30

53:                                               ; preds = %27
  call void @llvm.lifetime.end.p0(i64 8, ptr %13) #3
  br label %54

54:                                               ; preds = %53
  %55 = load i64, ptr %11, align 8, !tbaa !3
  %56 = add nsw i64 %55, 1
  store i64 %56, ptr %11, align 8, !tbaa !3
  br label %14, !llvm.loop !31

57:                                               ; preds = %14
  call void @llvm.lifetime.end.p0(i64 8, ptr %12) #3
  call void @llvm.lifetime.end.p0(i64 8, ptr %11) #3
  ret void
}

; Function Attrs: nounwind uwtable
define void @QDLDL_solve(i64 noundef %0, ptr noundef %1, ptr noundef %2, ptr noundef %3, ptr noundef %4, ptr noundef %5) #0 {
  %7 = alloca i64, align 8
  %8 = alloca ptr, align 8
  %9 = alloca ptr, align 8
  %10 = alloca ptr, align 8
  %11 = alloca ptr, align 8
  %12 = alloca ptr, align 8
  %13 = alloca i64, align 8
  store i64 %0, ptr %7, align 8, !tbaa !3
  store ptr %1, ptr %8, align 8, !tbaa !7
  store ptr %2, ptr %9, align 8, !tbaa !7
  store ptr %3, ptr %10, align 8, !tbaa !16
  store ptr %4, ptr %11, align 8, !tbaa !16
  store ptr %5, ptr %12, align 8, !tbaa !16
  call void @llvm.lifetime.start.p0(i64 8, ptr %13) #3
  %14 = load i64, ptr %7, align 8, !tbaa !3
  %15 = load ptr, ptr %8, align 8, !tbaa !7
  %16 = load ptr, ptr %9, align 8, !tbaa !7
  %17 = load ptr, ptr %10, align 8, !tbaa !16
  %18 = load ptr, ptr %12, align 8, !tbaa !16
  call void @QDLDL_Lsolve(i64 noundef %14, ptr noundef %15, ptr noundef %16, ptr noundef %17, ptr noundef %18)
  store i64 0, ptr %13, align 8, !tbaa !3
  br label %19

19:                                               ; preds = %33, %6
  %20 = load i64, ptr %13, align 8, !tbaa !3
  %21 = load i64, ptr %7, align 8, !tbaa !3
  %22 = icmp slt i64 %20, %21
  br i1 %22, label %23, label %36

23:                                               ; preds = %19
  %24 = load ptr, ptr %11, align 8, !tbaa !16
  %25 = load i64, ptr %13, align 8, !tbaa !3
  %26 = getelementptr inbounds double, ptr %24, i64 %25
  %27 = load double, ptr %26, align 8, !tbaa !21
  %28 = load ptr, ptr %12, align 8, !tbaa !16
  %29 = load i64, ptr %13, align 8, !tbaa !3
  %30 = getelementptr inbounds double, ptr %28, i64 %29
  %31 = load double, ptr %30, align 8, !tbaa !21
  %32 = fmul double %31, %27
  store double %32, ptr %30, align 8, !tbaa !21
  br label %33

33:                                               ; preds = %23
  %34 = load i64, ptr %13, align 8, !tbaa !3
  %35 = add nsw i64 %34, 1
  store i64 %35, ptr %13, align 8, !tbaa !3
  br label %19, !llvm.loop !34

36:                                               ; preds = %19
  %37 = load i64, ptr %7, align 8, !tbaa !3
  %38 = load ptr, ptr %8, align 8, !tbaa !7
  %39 = load ptr, ptr %9, align 8, !tbaa !7
  %40 = load ptr, ptr %10, align 8, !tbaa !16
  %41 = load ptr, ptr %12, align 8, !tbaa !16
  call void @QDLDL_Ltsolve(i64 noundef %37, ptr noundef %38, ptr noundef %39, ptr noundef %40, ptr noundef %41)
  call void @llvm.lifetime.end.p0(i64 8, ptr %13) #3
  ret void
}