; Function Attrs: nofree norecurse nosync nounwind memory(argmem: readwrite) uwtable
define void @QDLDL_solve(i64 noundef %0, ptr noundef readonly captures(none) %1, ptr noundef readonly captures(none) %2, ptr noundef readonly captures(none) %3, ptr noundef readonly captures(none) %4, ptr noundef captures(none) %5) local_unnamed_addr #0 {
  %7 = icmp sgt i64 %0, 0
  br i1 %7, label %.lr.ph19.preheader.i, label %QDLDL_Ltsolve.exit

.lr.ph19.preheader.i:                             ; preds = %6
  %.pre.i = load i64, ptr %1, align 8, !tbaa !3
  br label %.lr.ph19.i

.loopexit.i:                                      ; preds = %.lr.ph.i, %.lr.ph19.i
  %exitcond20.not.i = icmp eq i64 %11, %0
  br i1 %exitcond20.not.i, label %.lr.ph, label %.lr.ph19.i, !llvm.loop !23

.lr.ph19.i:                                       ; preds = %.loopexit.i, %.lr.ph19.preheader.i
  %8 = phi i64 [ %13, %.loopexit.i ], [ %.pre.i, %.lr.ph19.preheader.i ]
  %.018.i = phi i64 [ %11, %.loopexit.i ], [ 0, %.lr.ph19.preheader.i ]
  %9 = getelementptr inbounds nuw double, ptr %5, i64 %.018.i
  %10 = load double, ptr %9, align 8, !tbaa !14
  %11 = add nuw nsw i64 %.018.i, 1
  %12 = getelementptr inbounds nuw i64, ptr %1, i64 %11
  %13 = load i64, ptr %12, align 8, !tbaa !3
  %14 = icmp slt i64 %8, %13
  br i1 %14, label %.lr.ph.i, label %.loopexit.i

.lr.ph.i:                                         ; preds = %.lr.ph19.i, %.lr.ph.i
  %.01617.i = phi i64 [ %23, %.lr.ph.i ], [ %8, %.lr.ph19.i ]
  %15 = getelementptr inbounds double, ptr %3, i64 %.01617.i
  %16 = load double, ptr %15, align 8, !tbaa !14
  %17 = getelementptr inbounds i64, ptr %2, i64 %.01617.i
  %18 = load i64, ptr %17, align 8, !tbaa !3
  %19 = getelementptr inbounds double, ptr %5, i64 %18
  %20 = load double, ptr %19, align 8, !tbaa !14
  %21 = fneg double %16
  %22 = tail call double @llvm.fmuladd.f64(double %21, double %10, double %20)
  store double %22, ptr %19, align 8, !tbaa !14
  %23 = add nsw i64 %.01617.i, 1
  %exitcond.not.i = icmp eq i64 %23, %13
  br i1 %exitcond.not.i, label %.loopexit.i, label %.lr.ph.i, !llvm.loop !24

.lr.ph:                                           ; preds = %.loopexit.i, %.lr.ph
  %.020 = phi i64 [ %29, %.lr.ph ], [ 0, %.loopexit.i ]
  %24 = getelementptr inbounds nuw double, ptr %4, i64 %.020
  %25 = load double, ptr %24, align 8, !tbaa !14
  %26 = getelementptr inbounds nuw double, ptr %5, i64 %.020
  %27 = load double, ptr %26, align 8, !tbaa !14
  %28 = fmul double %25, %27
  store double %28, ptr %26, align 8, !tbaa !14
  %29 = add nuw nsw i64 %.020, 1
  %exitcond.not = icmp eq i64 %29, %0
  br i1 %exitcond.not, label %.lr.ph27.preheader.i, label %.lr.ph, !llvm.loop !27

.lr.ph27.preheader.i:                             ; preds = %.lr.ph
  %.phi.trans.insert.i = getelementptr inbounds nuw i64, ptr %1, i64 %0
  %.pre.i17 = load i64, ptr %.phi.trans.insert.i, align 8, !tbaa !3
  br label %.lr.ph27.i

.lr.ph27.i:                                       ; preds = %._crit_edge.i, %.lr.ph27.preheader.i
  %30 = phi i64 [ %34, %._crit_edge.i ], [ %.pre.i17, %.lr.ph27.preheader.i ]
  %.020.in24.i = phi i64 [ %.02025.i, %._crit_edge.i ], [ %0, %.lr.ph27.preheader.i ]
  %.02025.i = add nsw i64 %.020.in24.i, -1
  %31 = getelementptr inbounds nuw double, ptr %5, i64 %.02025.i
  %32 = load double, ptr %31, align 8, !tbaa !14
  %33 = getelementptr inbounds nuw i64, ptr %1, i64 %.02025.i
  %34 = load i64, ptr %33, align 8, !tbaa !3
  %35 = icmp slt i64 %34, %30
  br i1 %35, label %.lr.ph.i18, label %._crit_edge.i

.lr.ph.i18:                                       ; preds = %.lr.ph27.i, %.lr.ph.i18
  %.022.i = phi double [ %43, %.lr.ph.i18 ], [ %32, %.lr.ph27.i ]
  %.01921.i = phi i64 [ %44, %.lr.ph.i18 ], [ %34, %.lr.ph27.i ]
  %36 = getelementptr inbounds double, ptr %3, i64 %.01921.i
  %37 = load double, ptr %36, align 8, !tbaa !14
  %38 = getelementptr inbounds i64, ptr %2, i64 %.01921.i
  %39 = load i64, ptr %38, align 8, !tbaa !3
  %40 = getelementptr inbounds double, ptr %5, i64 %39
  %41 = load double, ptr %40, align 8, !tbaa !14
  %42 = fneg double %37
  %43 = tail call double @llvm.fmuladd.f64(double %42, double %41, double %.022.i)
  %44 = add nsw i64 %.01921.i, 1
  %exitcond.not.i19 = icmp eq i64 %44, %30
  br i1 %exitcond.not.i19, label %._crit_edge.i, label %.lr.ph.i18, !llvm.loop !25

._crit_edge.i:                                    ; preds = %.lr.ph.i18, %.lr.ph27.i
  %.0.lcssa.i = phi double [ %32, %.lr.ph27.i ], [ %43, %.lr.ph.i18 ]
  store double %.0.lcssa.i, ptr %31, align 8, !tbaa !14
  %45 = icmp sgt i64 %.020.in24.i, 1
  br i1 %45, label %.lr.ph27.i, label %QDLDL_Ltsolve.exit, !llvm.loop !26

QDLDL_Ltsolve.exit:                               ; preds = %._crit_edge.i, %6
  ret void
}